target datalayout = "e-m:e-p270:32:32-p271:32:32-p272:64:64-i64:64-i128:128-f80:128-n8:16:32:64-S128"
target triple = "x86_64-pc-linux-gnu"

%struct.uat_esp_sa_record_t = type { i8, ptr, ptr, ptr, i8, ptr, ptr, i32, i8, ptr, i8, ptr, ptr, i32, i8, i32 }
%struct._value_string = type { i32, ptr }

; Function Attrs: null_pointer_is_valid sspstrong uwtable
define internal void @uat_esp_sa_records_encryption_algo_set_cb(ptr noundef %0, ptr noundef %1, i32 noundef %2, ptr noundef %3, ptr noundef %4) #0 {
  %6 = alloca ptr, align 8
  %7 = alloca ptr, align 8
  %8 = alloca i32, align 4
  %9 = alloca ptr, align 8
  %10 = alloca ptr, align 8
  %11 = alloca i32, align 4
  %12 = alloca ptr, align 8
  %13 = alloca ptr, align 8
  %14 = alloca i32, align 4
  store ptr %0, ptr %6, align 8
  store ptr %1, ptr %7, align 8
  store i32 %2, ptr %8, align 4
  store ptr %3, ptr %9, align 8
  store ptr %4, ptr %10, align 8
  call void @llvm.lifetime.start.p0(i64 4, ptr %11) #17
  call void @llvm.lifetime.start.p0(i64 8, ptr %12) #17
  %15 = load ptr, ptr %7, align 8
  %16 = load i32, ptr %8, align 4
  %17 = zext i32 %16 to i64
  %18 = call noalias ptr @g_strndup(ptr noundef %15, i64 noundef %17)
  store ptr %18, ptr %12, align 8
  call void @llvm.lifetime.start.p0(i64 8, ptr %13) #17
  %19 = load ptr, ptr %6, align 8
  %20 = getelementptr inbounds nuw %struct.uat_esp_sa_record_t, ptr %19, i32 0, i32 4
  store i8 0, ptr %20, align 8
  store i32 0, ptr %11, align 4
  br label %21

21:                                               ; preds = %46, %5
  %22 = load ptr, ptr %9, align 8
  %23 = load i32, ptr %11, align 4
  %24 = zext i32 %23 to i64
  %25 = getelementptr %struct._value_string, ptr %22, i64 %24
  %26 = getelementptr inbounds nuw %struct._value_string, ptr %25, i32 0, i32 1
  %27 = load ptr, ptr %26, align 8
  store ptr %27, ptr %13, align 8
  %28 = icmp ne ptr %27, null
  br i1 %28, label %29, label %49

29:                                               ; preds = %21
  %30 = load ptr, ptr %13, align 8
  %31 = load ptr, ptr %12, align 8
  %32 = call i32 @g_str_equal(ptr noundef %30, ptr noundef %31)
  %33 = icmp ne i32 %32, 0
  br i1 %33, label %34, label %45

34:                                               ; preds = %29
  %35 = load ptr, ptr %9, align 8
  %36 = load i32, ptr %11, align 4
  %37 = zext i32 %36 to i64
  %38 = getelementptr %struct._value_string, ptr %35, i64 %37
  %39 = getelementptr inbounds nuw %struct._value_string, ptr %38, i32 0, i32 0
  %40 = load i32, ptr %39, align 8
  %41 = trunc i32 %40 to i8
  %42 = load ptr, ptr %6, align 8
  %43 = getelementptr inbounds nuw %struct.uat_esp_sa_record_t, ptr %42, i32 0, i32 4
  store i8 %41, ptr %43, align 8
  %44 = load ptr, ptr %12, align 8
  call void @g_free(ptr noundef %44)
  store i32 1, ptr %14, align 4
  br label %51

45:                                               ; preds = %29
  br label %46

46:                                               ; preds = %45
  %47 = load i32, ptr %11, align 4
  %48 = add i32 %47, 1
  store i32 %48, ptr %11, align 4
  br label %21, !llvm.loop !11

49:                                               ; preds = %21
  %50 = load ptr, ptr %12, align 8
  call void @g_free(ptr noundef %50)
  store i32 0, ptr %14, align 4
  br label %51

51:                                               ; preds = %49, %34
  call void @llvm.lifetime.end.p0(i64 8, ptr %13) #17
  call void @llvm.lifetime.end.p0(i64 8, ptr %12) #17
  call void @llvm.lifetime.end.p0(i64 4, ptr %11) #17
  %52 = load i32, ptr %14, align 4
  switch i32 %52, label %54 [
    i32 0, label %53
    i32 1, label %53
  ]

53:                                               ; preds = %51, %51
  ret void

54:                                               ; preds = %51
  unreachable
}